target datalayout = "e-m:e-p270:32:32-p271:32:32-p272:64:64-i64:64-i128:128-f80:128-n8:16:32:64-S128"
target triple = "x86_64-pc-linux-gnu"

; Function Attrs: nounwind uwtable
define internal zeroext i1 @word_matches(ptr noundef %0, ptr noundef %1, i1 noundef zeroext %2) #0 {
  %4 = alloca i1, align 1
  %5 = alloca ptr, align 8
  %6 = alloca ptr, align 8
  %7 = alloca i8, align 1
  %8 = alloca i64, align 8
  %9 = alloca i32, align 4
  %10 = alloca ptr, align 8
  %11 = alloca ptr, align 8
  %12 = alloca i64, align 8
  %13 = alloca i64, align 8
  store ptr %0, ptr %5, align 8
  store ptr %1, ptr %6, align 8
  %14 = zext i1 %2 to i8
  store i8 %14, ptr %7, align 1
  call void @llvm.lifetime.start.p0(i64 8, ptr %8) #8
  %15 = load ptr, ptr %5, align 8
  %16 = icmp eq ptr %15, null
  br i1 %16, label %17, label %18

17:                                               ; preds = %3
  store i1 true, ptr %4, align 1
  store i32 1, ptr %9, align 4
  br label %163

18:                                               ; preds = %3
  %19 = load ptr, ptr %5, align 8
  %20 = load i8, ptr %19, align 1
  %21 = sext i8 %20 to i32
  %22 = icmp eq i32 %21, 33
  br i1 %22, label %23, label %31

23:                                               ; preds = %18
  %24 = load ptr, ptr %5, align 8
  %25 = getelementptr inbounds i8, ptr %24, i64 1
  %26 = load ptr, ptr %6, align 8
  %27 = load i8, ptr %7, align 1, !range !6, !noundef !7
  %28 = trunc i8 %27 to i1
  %29 = call zeroext i1 @word_matches(ptr noundef %25, ptr noundef %26, i1 noundef zeroext %28)
  %30 = xor i1 %29, true
  store i1 %30, ptr %4, align 1
  store i32 1, ptr %9, align 4
  br label %163

31:                                               ; preds = %18
  %32 = load ptr, ptr %6, align 8
  %33 = call i64 @strlen(ptr noundef %32) #9
  store i64 %33, ptr %8, align 8
  br label %34

34:                                               ; preds = %161, %31
  call void @llvm.lifetime.start.p0(i64 8, ptr %10) #8
  store ptr null, ptr %10, align 8
  call void @llvm.lifetime.start.p0(i64 8, ptr %11) #8
  %35 = load ptr, ptr %5, align 8
  store ptr %35, ptr %11, align 8
  br label %36

36:                                               ; preds = %55, %34
  %37 = load ptr, ptr %11, align 8
  %38 = load i8, ptr %37, align 1
  %39 = sext i8 %38 to i32
  %40 = icmp ne i32 %39, 0
  br i1 %40, label %41, label %46

41:                                               ; preds = %36
  %42 = load ptr, ptr %11, align 8
  %43 = load i8, ptr %42, align 1
  %44 = sext i8 %43 to i32
  %45 = icmp ne i32 %44, 124
  br label %46

46:                                               ; preds = %41, %36
  %47 = phi i1 [ false, %36 ], [ %45, %41 ]
  br i1 %47, label %48, label %58

48:                                               ; preds = %46
  %49 = load ptr, ptr %11, align 8
  %50 = load i8, ptr %49, align 1
  %51 = sext i8 %50 to i32
  %52 = icmp eq i32 %51, 42
  br i1 %52, label %53, label %55

53:                                               ; preds = %48
  %54 = load ptr, ptr %11, align 8
  store ptr %54, ptr %10, align 8
  br label %55

55:                                               ; preds = %53, %48
  %56 = load ptr, ptr %11, align 8
  %57 = getelementptr inbounds nuw i8, ptr %56, i32 1
  store ptr %57, ptr %11, align 8
  br label %36, !llvm.loop !24

58:                                               ; preds = %46
  %59 = load ptr, ptr %10, align 8
  %60 = icmp ne ptr %59, null
  br i1 %60, label %61, label %125

61:                                               ; preds = %58
  call void @llvm.lifetime.start.p0(i64 8, ptr %12) #8
  %62 = load ptr, ptr %10, align 8
  %63 = load ptr, ptr %5, align 8
  %64 = ptrtoint ptr %62 to i64
  %65 = ptrtoint ptr %63 to i64
  %66 = sub i64 %64, %65
  store i64 %66, ptr %12, align 8
  call void @llvm.lifetime.start.p0(i64 8, ptr %13) #8
  %67 = load ptr, ptr %11, align 8
  %68 = load ptr, ptr %10, align 8
  %69 = ptrtoint ptr %67 to i64
  %70 = ptrtoint ptr %68 to i64
  %71 = sub i64 %69, %70
  %72 = sub i64 %71, 1
  store i64 %72, ptr %13, align 8
  %73 = load i64, ptr %8, align 8
  %74 = load i64, ptr %12, align 8
  %75 = load i64, ptr %13, align 8
  %76 = add i64 %74, %75
  %77 = icmp uge i64 %73, %76
  br i1 %77, label %78, label %121

78:                                               ; preds = %61
  %79 = load i8, ptr %7, align 1, !range !6, !noundef !7
  %80 = trunc i8 %79 to i1
  br i1 %80, label %81, label %87

81:                                               ; preds = %78
  %82 = load ptr, ptr %6, align 8
  %83 = load ptr, ptr %5, align 8
  %84 = load i64, ptr %12, align 8
  %85 = call i32 @strncmp(ptr noundef %82, ptr noundef %83, i64 noundef %84) #9
  %86 = icmp eq i32 %85, 0
  br i1 %86, label %93, label %121

87:                                               ; preds = %78
  %88 = load ptr, ptr %6, align 8
  %89 = load ptr, ptr %5, align 8
  %90 = load i64, ptr %12, align 8
  %91 = call i32 @pg_strncasecmp(ptr noundef %88, ptr noundef %89, i64 noundef %90)
  %92 = icmp eq i32 %91, 0
  br i1 %92, label %93, label %121

93:                                               ; preds = %87, %81
  %94 = load i8, ptr %7, align 1, !range !6, !noundef !7
  %95 = trunc i8 %94 to i1
  br i1 %95, label %96, label %108

96:                                               ; preds = %93
  %97 = load ptr, ptr %6, align 8
  %98 = load i64, ptr %8, align 8
  %99 = getelementptr inbounds nuw i8, ptr %97, i64 %98
  %100 = load i64, ptr %13, align 8
  %101 = sub i64 0, %100
  %102 = getelementptr inbounds i8, ptr %99, i64 %101
  %103 = load ptr, ptr %10, align 8
  %104 = getelementptr inbounds i8, ptr %103, i64 1
  %105 = load i64, ptr %13, align 8
  %106 = call i32 @strncmp(ptr noundef %102, ptr noundef %104, i64 noundef %105) #9
  %107 = icmp eq i32 %106, 0
  br i1 %107, label %120, label %121

108:                                              ; preds = %93
  %109 = load ptr, ptr %6, align 8
  %110 = load i64, ptr %8, align 8
  %111 = getelementptr inbounds nuw i8, ptr %109, i64 %110
  %112 = load i64, ptr %13, align 8
  %113 = sub i64 0, %112
  %114 = getelementptr inbounds i8, ptr %111, i64 %113
  %115 = load ptr, ptr %10, align 8
  %116 = getelementptr inbounds i8, ptr %115, i64 1
  %117 = load i64, ptr %13, align 8
  %118 = call i32 @pg_strncasecmp(ptr noundef %114, ptr noundef %116, i64 noundef %117)
  %119 = icmp eq i32 %118, 0
  br i1 %119, label %120, label %121

120:                                              ; preds = %108, %96
  store i1 true, ptr %4, align 1
  store i32 1, ptr %9, align 4
  br label %122

121:                                              ; preds = %108, %96, %87, %81, %61
  store i32 0, ptr %9, align 4
  br label %122

122:                                              ; preds = %121, %120
  call void @llvm.lifetime.end.p0(i64 8, ptr %13) #8
  call void @llvm.lifetime.end.p0(i64 8, ptr %12) #8
  %123 = load i32, ptr %9, align 4
  switch i32 %123, label %159 [
    i32 0, label %124
  ]

124:                                              ; preds = %122
  br label %150

125:                                              ; preds = %58
  %126 = load i64, ptr %8, align 8
  %127 = load ptr, ptr %11, align 8
  %128 = load ptr, ptr %5, align 8
  %129 = ptrtoint ptr %127 to i64
  %130 = ptrtoint ptr %128 to i64
  %131 = sub i64 %129, %130
  %132 = icmp eq i64 %126, %131
  br i1 %132, label %133, label %149

133:                                              ; preds = %125
  %134 = load i8, ptr %7, align 1, !range !6, !noundef !7
  %135 = trunc i8 %134 to i1
  br i1 %135, label %136, label %142

136:                                              ; preds = %133
  %137 = load ptr, ptr %6, align 8
  %138 = load ptr, ptr %5, align 8
  %139 = load i64, ptr %8, align 8
  %140 = call i32 @strncmp(ptr noundef %137, ptr noundef %138, i64 noundef %139) #9
  %141 = icmp eq i32 %140, 0
  br i1 %141, label %148, label %149

142:                                              ; preds = %133
  %143 = load ptr, ptr %6, align 8
  %144 = load ptr, ptr %5, align 8
  %145 = load i64, ptr %8, align 8
  %146 = call i32 @pg_strncasecmp(ptr noundef %143, ptr noundef %144, i64 noundef %145)
  %147 = icmp eq i32 %146, 0
  br i1 %147, label %148, label %149

148:                                              ; preds = %142, %136
  store i1 true, ptr %4, align 1
  store i32 1, ptr %9, align 4
  br label %159

149:                                              ; preds = %142, %136, %125
  br label %150

150:                                              ; preds = %149, %124
  %151 = load ptr, ptr %11, align 8
  %152 = load i8, ptr %151, align 1
  %153 = sext i8 %152 to i32
  %154 = icmp eq i32 %153, 0
  br i1 %154, label %155, label %156

155:                                              ; preds = %150
  store i32 2, ptr %9, align 4
  br label %159

156:                                              ; preds = %150
  %157 = load ptr, ptr %11, align 8
  %158 = getelementptr inbounds i8, ptr %157, i64 1
  store ptr %158, ptr %5, align 8
  store i32 0, ptr %9, align 4
  br label %159

159:                                              ; preds = %156, %155, %148, %122
  call void @llvm.lifetime.end.p0(i64 8, ptr %11) #8
  call void @llvm.lifetime.end.p0(i64 8, ptr %10) #8
  %160 = load i32, ptr %9, align 4
  switch i32 %160, label %163 [
    i32 0, label %161
    i32 2, label %162
  ]

161:                                              ; preds = %159
  br label %34

162:                                              ; preds = %159
  store i1 false, ptr %4, align 1
  store i32 1, ptr %9, align 4
  br label %163

163:                                              ; preds = %162, %159, %23, %17
  call void @llvm.lifetime.end.p0(i64 8, ptr %8) #8
  %164 = load i1, ptr %4, align 1
  ret i1 %164
}