; Function Attrs: nounwind uwtable
define internal fastcc zeroext i1 @word_matches(ptr noundef %0, ptr noundef %1, i1 noundef zeroext %2) unnamed_addr #0 {
  %4 = icmp eq ptr %0, null
  br i1 %4, label %.thread69, label %.lr.ph.preheader

.lr.ph.preheader:                                 ; preds = %3
  %5 = load i8, ptr %0, align 1
  %6 = icmp eq i8 %5, 33
  br i1 %6, label %tailrecurse, label %.lr.ph._crit_edge

tailrecurse:                                      ; preds = %.lr.ph.preheader, %tailrecurse
  %accumulator.tr8193 = phi i1 [ %8, %tailrecurse ], [ false, %.lr.ph.preheader ]
  %.tr8292 = phi ptr [ %7, %tailrecurse ], [ %0, %.lr.ph.preheader ]
  %7 = getelementptr inbounds nuw i8, ptr %.tr8292, i64 1
  %8 = xor i1 %accumulator.tr8193, true
  %9 = load i8, ptr %7, align 1
  %10 = icmp eq i8 %9, 33
  br i1 %10, label %tailrecurse, label %.lr.ph._crit_edge

.lr.ph._crit_edge:                                ; preds = %tailrecurse, %.lr.ph.preheader
  %.tr82.lcssa = phi ptr [ %0, %.lr.ph.preheader ], [ %7, %tailrecurse ]
  %accumulator.tr81.lcssa = phi i1 [ false, %.lr.ph.preheader ], [ %8, %tailrecurse ]
  %11 = tail call i64 @strlen(ptr noundef nonnull dereferenceable(1) %1) #13
  %12 = getelementptr inbounds nuw i8, ptr %1, i64 %11
  br i1 %2, label %.split.us, label %.split

.split.us:                                        ; preds = %.lr.ph._crit_edge, %.critedge67.us
  %.052.us = phi ptr [ %41, %.critedge67.us ], [ %.tr82.lcssa, %.lr.ph._crit_edge ]
  br label %13

13:                                               ; preds = %42, %.split.us
  %.055.us = phi ptr [ null, %.split.us ], [ %.156.us, %42 ]
  %.054.us = phi ptr [ %.052.us, %.split.us ], [ %43, %42 ]
  %14 = load i8, ptr %.054.us, align 1
  switch i8 %14, label %42 [
    i8 0, label %.critedge.us
    i8 124, label %.critedge.us
    i8 42, label %15
  ]

15:                                               ; preds = %13
  br label %42

.critedge.us:                                     ; preds = %13, %13
  %.not64.us = icmp eq ptr %.055.us, null
  %16 = ptrtoint ptr %.052.us to i64
  br i1 %.not64.us, label %33, label %17

17:                                               ; preds = %.critedge.us
  %18 = ptrtoint ptr %.055.us to i64
  %19 = sub i64 %18, %16
  %20 = ptrtoint ptr %.054.us to i64
  %21 = xor i64 %18, -1
  %22 = add i64 %20, %21
  %23 = add i64 %22, %19
  %.not65.us = icmp ult i64 %11, %23
  br i1 %.not65.us, label %.critedge67.us, label %24

24:                                               ; preds = %17
  %25 = tail call i32 @strncmp(ptr noundef nonnull %1, ptr noundef nonnull %.052.us, i64 noundef %19) #13
  %26 = icmp eq i32 %25, 0
  br i1 %26, label %27, label %.critedge67.us

27:                                               ; preds = %24
  %28 = sub i64 0, %22
  %29 = getelementptr inbounds i8, ptr %12, i64 %28
  %30 = getelementptr inbounds nuw i8, ptr %.055.us, i64 1
  %31 = tail call i32 @strncmp(ptr noundef nonnull %29, ptr noundef nonnull %30, i64 noundef %22) #13
  %32 = icmp eq i32 %31, 0
  br i1 %32, label %.thread69, label %.critedge67.us

33:                                               ; preds = %.critedge.us
  %34 = ptrtoint ptr %.054.us to i64
  %35 = sub i64 %34, %16
  %36 = icmp eq i64 %11, %35
  br i1 %36, label %37, label %.critedge67.us

37:                                               ; preds = %33
  %38 = tail call i32 @strncmp(ptr noundef nonnull %1, ptr noundef nonnull %.052.us, i64 noundef %11) #13
  %39 = icmp eq i32 %38, 0
  br i1 %39, label %.thread69, label %.critedge67.us

.critedge67.us:                                   ; preds = %37, %33, %27, %24, %17
  %40 = icmp eq i8 %14, 0
  %41 = getelementptr inbounds nuw i8, ptr %.054.us, i64 1
  br i1 %40, label %.thread69, label %.split.us

42:                                               ; preds = %15, %13
  %.156.us = phi ptr [ %.054.us, %15 ], [ %.055.us, %13 ]
  %43 = getelementptr inbounds nuw i8, ptr %.054.us, i64 1
  br label %13, !llvm.loop !24

.split:                                           ; preds = %.lr.ph._crit_edge, %.critedge67
  %.052 = phi ptr [ %75, %.critedge67 ], [ %.tr82.lcssa, %.lr.ph._crit_edge ]
  br label %44

44:                                               ; preds = %47, %.split
  %.055 = phi ptr [ null, %.split ], [ %.156, %47 ]
  %.054 = phi ptr [ %.052, %.split ], [ %48, %47 ]
  %45 = load i8, ptr %.054, align 1
  switch i8 %45, label %47 [
    i8 0, label %.critedge
    i8 124, label %.critedge
    i8 42, label %46
  ]

46:                                               ; preds = %44
  br label %47

47:                                               ; preds = %44, %46
  %.156 = phi ptr [ %.054, %46 ], [ %.055, %44 ]
  %48 = getelementptr inbounds nuw i8, ptr %.054, i64 1
  br label %44, !llvm.loop !24

.critedge:                                        ; preds = %44, %44
  %.not64 = icmp eq ptr %.055, null
  %49 = ptrtoint ptr %.052 to i64
  br i1 %.not64, label %66, label %50

50:                                               ; preds = %.critedge
  %51 = ptrtoint ptr %.055 to i64
  %52 = sub i64 %51, %49
  %53 = ptrtoint ptr %.054 to i64
  %54 = xor i64 %51, -1
  %55 = add i64 %53, %54
  %56 = add i64 %55, %52
  %.not65 = icmp ult i64 %11, %56
  br i1 %.not65, label %.critedge67, label %57

57:                                               ; preds = %50
  %58 = tail call i32 @pg_strncasecmp(ptr noundef nonnull %1, ptr noundef nonnull %.052, i64 noundef %52) #11
  %59 = icmp eq i32 %58, 0
  br i1 %59, label %60, label %.critedge67

60:                                               ; preds = %57
  %61 = sub i64 0, %55
  %62 = getelementptr inbounds i8, ptr %12, i64 %61
  %63 = getelementptr inbounds nuw i8, ptr %.055, i64 1
  %64 = tail call i32 @pg_strncasecmp(ptr noundef nonnull %62, ptr noundef nonnull %63, i64 noundef %55) #11
  %65 = icmp eq i32 %64, 0
  br i1 %65, label %.thread69, label %.critedge67

66:                                               ; preds = %.critedge
  %67 = ptrtoint ptr %.054 to i64
  %68 = sub i64 %67, %49
  %69 = icmp eq i64 %11, %68
  br i1 %69, label %70, label %.critedge67

70:                                               ; preds = %66
  %71 = tail call i32 @pg_strncasecmp(ptr noundef nonnull %1, ptr noundef nonnull %.052, i64 noundef %11) #11
  %72 = icmp eq i32 %71, 0
  br i1 %72, label %.thread69, label %.critedge67

.critedge67:                                      ; preds = %50, %57, %60, %66, %70
  %73 = load i8, ptr %.054, align 1
  %74 = icmp eq i8 %73, 0
  %75 = getelementptr inbounds nuw i8, ptr %.054, i64 1
  br i1 %74, label %.thread69, label %.split

.thread69:                                        ; preds = %.critedge67, %60, %70, %.critedge67.us, %37, %27, %3
  %accumulator.tr80 = phi i1 [ false, %3 ], [ %accumulator.tr81.lcssa, %27 ], [ %accumulator.tr81.lcssa, %37 ], [ %accumulator.tr81.lcssa, %.critedge67.us ], [ %accumulator.tr81.lcssa, %70 ], [ %accumulator.tr81.lcssa, %60 ], [ %accumulator.tr81.lcssa, %.critedge67 ]
  %.0 = phi i1 [ true, %3 ], [ false, %.critedge67.us ], [ true, %37 ], [ true, %27 ], [ false, %.critedge67 ], [ true, %60 ], [ true, %70 ]
  %accumulator.ret.tr = xor i1 %accumulator.tr80, %.0
  ret i1 %accumulator.ret.tr
}